target datalayout = "e-m:e-p270:32:32-p271:32:32-p272:64:64-i64:64-i128:128-f80:128-n8:16:32:64-S128"
target triple = "x86_64-pc-linux-gnu"

%struct.RelationData = type { %struct.RelFileLocator, ptr, i32, i32, i8, i8, i8, i8, i8, i32, i32, i32, i32, ptr, ptr, i32, %struct.LockInfoData, ptr, ptr, ptr, ptr, ptr, i8, ptr, ptr, ptr, ptr, ptr, ptr, i32, ptr, i8, ptr, ptr, i32, i8, i32, ptr, i8, ptr, ptr, ptr, ptr, ptr, ptr, ptr, i32, ptr, ptr, ptr, ptr, ptr, ptr, ptr, ptr, ptr, ptr, ptr, ptr, ptr, ptr, ptr, ptr, ptr, ptr, ptr, i32, i8, ptr }
%struct.RelFileLocator = type { i32, i32, i32 }
%struct.LockInfoData = type { %struct.LockRelId }
%struct.LockRelId = type { i32, i32 }
%struct.FormData_pg_class = type { i32, %struct.nameData, i32, i32, i32, i32, i32, i32, i32, i32, float, i32, i32, i8, i8, i8, i8, i16, i16, i8, i8, i8, i8, i8, i8, i8, i8, i32, i32, i32 }
%struct.nameData = type { [64 x i8] }

@MyDatabaseId = external global i32, align 4

; Function Attrs: nounwind uwtable
define dso_local void @pgstat_create_relation(ptr noundef %0) #0 {
  %2 = alloca ptr, align 8
  store ptr %0, ptr %2, align 8
  %3 = load ptr, ptr %2, align 8
  %4 = getelementptr inbounds nuw %struct.RelationData, ptr %3, i32 0, i32 13
  %5 = load ptr, ptr %4, align 8
  %6 = getelementptr inbounds nuw %struct.FormData_pg_class, ptr %5, i32 0, i32 14
  %7 = load i8, ptr %6, align 1, !range !4, !noundef !5
  %8 = trunc i8 %7 to i1
  br i1 %8, label %9, label %10

9:                                                ; preds = %1
  br label %12

10:                                               ; preds = %1
  %11 = load i32, ptr @MyDatabaseId, align 4
  br label %12

12:                                               ; preds = %10, %9
  %13 = phi i32 [ 0, %9 ], [ %11, %10 ]
  %14 = load ptr, ptr %2, align 8
  %15 = getelementptr inbounds nuw %struct.RelationData, ptr %14, i32 0, i32 15
  %16 = load i32, ptr %15, align 8
  %17 = zext i32 %16 to i64
  call void @pgstat_create_transactional(i32 noundef 2, i32 noundef %13, i64 noundef %17)
  ret void
}