; Function Attrs: nounwind uwtable
define dso_local void @pgstat_create_relation(ptr noundef readonly captures(none) %0) local_unnamed_addr #0 {
  %2 = getelementptr inbounds nuw i8, ptr %0, i64 56
  %3 = load ptr, ptr %2, align 8
  %4 = getelementptr inbounds nuw i8, ptr %3, i64 113
  %5 = load i8, ptr %4, align 1, !range !4, !noundef !5
  %6 = trunc nuw i8 %5 to i1
  %7 = load i32, ptr @MyDatabaseId, align 4
  %8 = select i1 %6, i32 0, i32 %7
  %9 = getelementptr inbounds nuw i8, ptr %0, i64 72
  %10 = load i32, ptr %9, align 8
  %11 = zext i32 %10 to i64
  tail call void @pgstat_create_transactional(i32 noundef 2, i32 noundef %8, i64 noundef %11) #9
  ret void
}